; Function Attrs: nounwind uwtable
define hidden void @SDL_SetTouchName(i64 noundef %0, ptr noundef %1) local_unnamed_addr #2 {
  %3 = tail call ptr @SDL_GetTouch(i64 noundef %0)
  %.not = icmp eq ptr %3, null
  br i1 %.not, label %9, label %4

4:                                                ; preds = %2
  %5 = getelementptr inbounds nuw i8, ptr %3, i64 32
  %6 = load ptr, ptr %5, align 8
  tail call void @SDL_free_REAL(ptr noundef %6) #7
  %.not5 = icmp eq ptr %1, null
  %7 = select i1 %.not5, ptr @.str.2, ptr %1
  %8 = tail call noalias ptr @SDL_strdup_REAL(ptr noundef nonnull %7) #7
  store ptr %8, ptr %5, align 8
  br label %9

9:                                                ; preds = %4, %2
  ret void
}